target datalayout = "e-m:e-p270:32:32-p271:32:32-p272:64:64-i64:64-i128:128-f80:128-n8:16:32:64-S128"
target triple = "x86_64-pc-linux-gnu"

%class.anon.3 = type { ptr }

; Function Attrs: inlinehint mustprogress uwtable
define internal noundef i32 @"_ZZN6google24glog_internal_namespace_L44OpenObjectFileContainingPcAndGetStartAddressEmRmS1_PcmENK3$_2clEv"(ptr noundef nonnull align 8 dereferenceable(8) %0) #7 align 2 {
  %2 = alloca ptr, align 8
  store ptr %0, ptr %2, align 8, !tbaa !3
  %3 = load ptr, ptr %2, align 8
  %4 = getelementptr inbounds nuw %class.anon.3, ptr %3, i32 0, i32 0
  %5 = load ptr, ptr %4, align 8, !tbaa !51
  %6 = call i32 (ptr, i32, ...) @open(ptr noundef %5, i32 noundef 0)
  ret i32 %6
}

; Function Attrs: mustprogress uwtable
define internal noundef i32 @"_ZN6google24glog_internal_namespace_12_GLOBAL__N_112FailureRetryIZNS0_L44OpenObjectFileContainingPcAndGetStartAddressEmRmS3_PcmE3$_2EEDaT_i"(ptr %0, i32 noundef %1) #1 {
  %3 = alloca %class.anon.3, align 8
  %4 = alloca i32, align 4
  %5 = alloca i32, align 4
  %6 = getelementptr inbounds nuw %class.anon.3, ptr %3, i32 0, i32 0
  store ptr %0, ptr %6, align 8
  store i32 %1, ptr %4, align 4, !tbaa !7
  call void @llvm.lifetime.start.p0(i64 4, ptr %5) #14
  br label %7

7:                                                ; preds = %17, %2
  %8 = call noundef i32 @"_ZZN6google24glog_internal_namespace_L44OpenObjectFileContainingPcAndGetStartAddressEmRmS1_PcmENK3$_2clEv"(ptr noundef nonnull align 8 dereferenceable(8) %3)
  store i32 %8, ptr %5, align 4, !tbaa !7
  %9 = icmp eq i32 %8, -1
  br i1 %9, label %10, label %15

10:                                               ; preds = %7
  %11 = call ptr @__errno_location() #17
  %12 = load i32, ptr %11, align 4, !tbaa !7
  %13 = load i32, ptr %4, align 4, !tbaa !7
  %14 = icmp eq i32 %12, %13
  br label %15

15:                                               ; preds = %10, %7
  %16 = phi i1 [ false, %7 ], [ %14, %10 ]
  br i1 %16, label %17, label %18

17:                                               ; preds = %15
  br label %7, !llvm.loop !73

18:                                               ; preds = %15
  %19 = load i32, ptr %5, align 4, !tbaa !7
  call void @llvm.lifetime.end.p0(i64 4, ptr %5) #14
  ret i32 %19
}