; Function Attrs: mustprogress nofree uwtable
define internal fastcc noundef i32 @"_ZN6google24glog_internal_namespace_12_GLOBAL__N_112FailureRetryIZNS0_L44OpenObjectFileContainingPcAndGetStartAddressEmRmS3_PcmE3$_2EEDaT_i"(ptr readonly captures(none) %0) unnamed_addr #4 {
  br label %2

2:                                                ; preds = %5, %1
  %3 = tail call noundef i32 (ptr, i32, ...) @open(ptr noundef readonly %0, i32 noundef 0)
  %4 = icmp eq i32 %3, -1
  br i1 %4, label %5, label %.critedge

5:                                                ; preds = %2
  %6 = tail call ptr @__errno_location() #22
  %7 = load i32, ptr %6, align 4, !tbaa !7
  %8 = icmp eq i32 %7, 4
  br i1 %8, label %2, label %.critedge, !llvm.loop !41

.critedge:                                        ; preds = %2, %5
  ret i32 %3
}